target datalayout = "e-m:e-p270:32:32-p271:32:32-p272:64:64-i64:64-i128:128-f80:128-n8:16:32:64-S128"
target triple = "x86_64-unknown-linux-gnu"

%struct.timeval = type { i64, i64 }

@trace_events_enabled_count = external global i32, align 4
@message_with_timestamp = external global i8, align 1
@qemu_loglevel = external global i32, align 4
@_TRACE_BDRV_CO_COPY_RANGE_FROM_DSTATE = external global i16, align 2
@.str.102 = private unnamed_addr constant [103 x i8] c"%d@%zu.%06zu:bdrv_co_copy_range_from src %p offset %ld dst %p offset %ld bytes %ld rw flags 0x%x 0x%x\0A\00", align 1
@.str.103 = private unnamed_addr constant [90 x i8] c"bdrv_co_copy_range_from src %p offset %ld dst %p offset %ld bytes %ld rw flags 0x%x 0x%x\0A\00", align 1

; Function Attrs: nounwind sspstrong uwtable
define internal zeroext i1 @qemu_loglevel_mask(i32 noundef %mask) #0 {
entry:
  %mask.addr = alloca i32, align 4
  store i32 %mask, ptr %mask.addr, align 4
  %0 = load i32, ptr @qemu_loglevel, align 4
  %1 = load i32, ptr %mask.addr, align 4
  %and = and i32 %0, %1
  %cmp = icmp ne i32 %and, 0
  ret i1 %cmp
}

; Function Attrs: nounwind sspstrong uwtable
define internal void @_nocheck__trace_bdrv_co_copy_range_from(ptr noundef %src, i64 noundef %src_offset, ptr noundef %dst, i64 noundef %dst_offset, i64 noundef %bytes, i32 noundef %read_flags, i32 noundef %write_flags) #0 {
entry:
  %src.addr = alloca ptr, align 8
  %src_offset.addr = alloca i64, align 8
  %dst.addr = alloca ptr, align 8
  %dst_offset.addr = alloca i64, align 8
  %bytes.addr = alloca i64, align 8
  %read_flags.addr = alloca i32, align 4
  %write_flags.addr = alloca i32, align 4
  %_now = alloca %struct.timeval, align 8
  store ptr %src, ptr %src.addr, align 8
  store i64 %src_offset, ptr %src_offset.addr, align 8
  store ptr %dst, ptr %dst.addr, align 8
  store i64 %dst_offset, ptr %dst_offset.addr, align 8
  store i64 %bytes, ptr %bytes.addr, align 8
  store i32 %read_flags, ptr %read_flags.addr, align 4
  store i32 %write_flags, ptr %write_flags.addr, align 4
  %0 = load i32, ptr @trace_events_enabled_count, align 4
  %tobool = icmp ne i32 %0, 0
  %lnot = xor i1 %tobool, true
  %lnot1 = xor i1 %lnot, true
  %lnot.ext = zext i1 %lnot1 to i32
  %conv = sext i32 %lnot.ext to i64
  %tobool2 = icmp ne i64 %conv, 0
  br i1 %tobool2, label %land.lhs.true, label %if.end11

land.lhs.true:                                    ; preds = %entry
  %1 = load i16, ptr @_TRACE_BDRV_CO_COPY_RANGE_FROM_DSTATE, align 2
  %conv3 = zext i16 %1 to i32
  %tobool4 = icmp ne i32 %conv3, 0
  br i1 %tobool4, label %land.lhs.true5, label %if.end11

land.lhs.true5:                                   ; preds = %land.lhs.true
  %call = call zeroext i1 @qemu_loglevel_mask(i32 noundef 32768)
  br i1 %call, label %if.then, label %if.end11

if.then:                                          ; preds = %land.lhs.true5
  %2 = load i8, ptr @message_with_timestamp, align 1
  %tobool7 = trunc i8 %2 to i1
  br i1 %tobool7, label %if.then8, label %if.else

if.then8:                                         ; preds = %if.then
  %call9 = call i32 @gettimeofday(ptr noundef %_now, ptr noundef null) #14
  %call10 = call i32 @qemu_get_thread_id()
  %tv_sec = getelementptr inbounds %struct.timeval, ptr %_now, i32 0, i32 0
  %3 = load i64, ptr %tv_sec, align 8
  %tv_usec = getelementptr inbounds %struct.timeval, ptr %_now, i32 0, i32 1
  %4 = load i64, ptr %tv_usec, align 8
  %5 = load ptr, ptr %src.addr, align 8
  %6 = load i64, ptr %src_offset.addr, align 8
  %7 = load ptr, ptr %dst.addr, align 8
  %8 = load i64, ptr %dst_offset.addr, align 8
  %9 = load i64, ptr %bytes.addr, align 8
  %10 = load i32, ptr %read_flags.addr, align 4
  %11 = load i32, ptr %write_flags.addr, align 4
  call void (ptr, ...) @qemu_log(ptr noundef @.str.102, i32 noundef %call10, i64 noundef %3, i64 noundef %4, ptr noundef %5, i64 noundef %6, ptr noundef %7, i64 noundef %8, i64 noundef %9, i32 noundef %10, i32 noundef %11)
  br label %if.end

if.else:                                          ; preds = %if.then
  %12 = load ptr, ptr %src.addr, align 8
  %13 = load i64, ptr %src_offset.addr, align 8
  %14 = load ptr, ptr %dst.addr, align 8
  %15 = load i64, ptr %dst_offset.addr, align 8
  %16 = load i64, ptr %bytes.addr, align 8
  %17 = load i32, ptr %read_flags.addr, align 4
  %18 = load i32, ptr %write_flags.addr, align 4
  call void (ptr, ...) @qemu_log(ptr noundef @.str.103, ptr noundef %12, i64 noundef %13, ptr noundef %14, i64 noundef %15, i64 noundef %16, i32 noundef %17, i32 noundef %18)
  br label %if.end

if.end:                                           ; preds = %if.else, %if.then8
  br label %if.end11

if.end11:                                         ; preds = %if.end, %land.lhs.true5, %land.lhs.true, %entry
  ret void
}

; Function Attrs: nounwind sspstrong uwtable
define internal void @trace_bdrv_co_copy_range_from(ptr noundef %src, i64 noundef %src_offset, ptr noundef %dst, i64 noundef %dst_offset, i64 noundef %bytes, i32 noundef %read_flags, i32 noundef %write_flags) #0 {
entry:
  %src.addr = alloca ptr, align 8
  %src_offset.addr = alloca i64, align 8
  %dst.addr = alloca ptr, align 8
  %dst_offset.addr = alloca i64, align 8
  %bytes.addr = alloca i64, align 8
  %read_flags.addr = alloca i32, align 4
  %write_flags.addr = alloca i32, align 4
  store ptr %src, ptr %src.addr, align 8
  store i64 %src_offset, ptr %src_offset.addr, align 8
  store ptr %dst, ptr %dst.addr, align 8
  store i64 %dst_offset, ptr %dst_offset.addr, align 8
  store i64 %bytes, ptr %bytes.addr, align 8
  store i32 %read_flags, ptr %read_flags.addr, align 4
  store i32 %write_flags, ptr %write_flags.addr, align 4
  %0 = load ptr, ptr %src.addr, align 8
  %1 = load i64, ptr %src_offset.addr, align 8
  %2 = load ptr, ptr %dst.addr, align 8
  %3 = load i64, ptr %dst_offset.addr, align 8
  %4 = load i64, ptr %bytes.addr, align 8
  %5 = load i32, ptr %read_flags.addr, align 4
  %6 = load i32, ptr %write_flags.addr, align 4
  call void @_nocheck__trace_bdrv_co_copy_range_from(ptr noundef %0, i64 noundef %1, ptr noundef %2, i64 noundef %3, i64 noundef %4, i32 noundef %5, i32 noundef %6)
  ret void
}

; Function Attrs: nounwind sspstrong uwtable
define dso_local i32 @bdrv_co_copy_range_from(ptr noundef %src, i64 noundef %src_offset, ptr noundef %dst, i64 noundef %dst_offset, i64 noundef %bytes, i32 noundef %read_flags, i32 noundef %write_flags) #0 {
entry:
  %src.addr = alloca ptr, align 8
  %src_offset.addr = alloca i64, align 8
  %dst.addr = alloca ptr, align 8
  %dst_offset.addr = alloca i64, align 8
  %bytes.addr = alloca i64, align 8
  %read_flags.addr = alloca i32, align 4
  %write_flags.addr = alloca i32, align 4
  store ptr %src, ptr %src.addr, align 8
  store i64 %src_offset, ptr %src_offset.addr, align 8
  store ptr %dst, ptr %dst.addr, align 8
  store i64 %dst_offset, ptr %dst_offset.addr, align 8
  store i64 %bytes, ptr %bytes.addr, align 8
  store i32 %read_flags, ptr %read_flags.addr, align 4
  store i32 %write_flags, ptr %write_flags.addr, align 4
  br label %do.body

do.body:                                          ; preds = %entry
  br label %do.end

do.end:                                           ; preds = %do.body
  call void @assert_bdrv_graph_readable()
  %0 = load ptr, ptr %src.addr, align 8
  %1 = load i64, ptr %src_offset.addr, align 8
  %2 = load ptr, ptr %dst.addr, align 8
  %3 = load i64, ptr %dst_offset.addr, align 8
  %4 = load i64, ptr %bytes.addr, align 8
  %5 = load i32, ptr %read_flags.addr, align 4
  %6 = load i32, ptr %write_flags.addr, align 4
  call void @trace_bdrv_co_copy_range_from(ptr noundef %0, i64 noundef %1, ptr noundef %2, i64 noundef %3, i64 noundef %4, i32 noundef %5, i32 noundef %6)
  %7 = load ptr, ptr %src.addr, align 8
  %8 = load i64, ptr %src_offset.addr, align 8
  %9 = load ptr, ptr %dst.addr, align 8
  %10 = load i64, ptr %dst_offset.addr, align 8
  %11 = load i64, ptr %bytes.addr, align 8
  %12 = load i32, ptr %read_flags.addr, align 4
  %13 = load i32, ptr %write_flags.addr, align 4
  %call = call i32 @bdrv_co_copy_range_internal(ptr noundef %7, i64 noundef %8, ptr noundef %9, i64 noundef %10, i64 noundef %11, i32 noundef %12, i32 noundef %13, i1 noundef zeroext true)
  ret i32 %call
}